; Function Attrs: mustprogress uwtable
define noalias noundef nonnull ptr @_ZNK10ColorValue5cloneEv(ptr nocapture noundef nonnull readonly align 8 dereferenceable(24) %0) unnamed_addr #1 align 2 {
  %2 = tail call noalias noundef nonnull dereferenceable(24) ptr @_Znwm(i64 noundef 24) #13
  store ptr getelementptr inbounds ({ [25 x ptr] }, ptr @_ZTV10ColorValue, i64 0, i32 0, i64 2), ptr %2, align 8
  %3 = getelementptr inbounds i8, ptr %2, i64 8
  %4 = getelementptr inbounds i8, ptr %0, i64 8
  %5 = load i32, ptr %4, align 8
  store i32 %5, ptr %3, align 4
  %6 = getelementptr inbounds i8, ptr %2, i64 12
  %7 = getelementptr inbounds i8, ptr %0, i64 12
  tail call void @llvm.memcpy.p0.p0.i64(ptr noundef nonnull align 4 dereferenceable(10) %6, ptr noundef nonnull align 4 dereferenceable(10) %7, i64 10, i1 false)
  ret ptr %2
}